; Function Attrs: mustprogress uwtable
define dso_local void @_ZN10ImDrawList13PathArcToFastERK6ImVec2fii(ptr noundef nonnull align 8 captures(none) dereferenceable(200) %0, ptr noundef nonnull readonly align 4 captures(none) dereferenceable(8) %1, float noundef %2, i32 noundef %3, i32 noundef %4) local_unnamed_addr #9 align 2 {
  %6 = fcmp olt float %2, 5.000000e-01
  br i1 %6, label %7, label %38

7:                                                ; preds = %5
  %8 = getelementptr inbounds nuw i8, ptr %0, i64 80
  %9 = load i32, ptr %8, align 8, !tbaa !62
  %10 = getelementptr inbounds nuw i8, ptr %0, i64 84
  %11 = load i32, ptr %10, align 4, !tbaa !60
  %12 = icmp eq i32 %9, %11
  br i1 %12, label %13, label %._ZN8ImVectorI6ImVec2E7reserveEi.exit_crit_edge.i

._ZN8ImVectorI6ImVec2E7reserveEi.exit_crit_edge.i: ; preds = %7
  %.phi.trans.insert.i = getelementptr inbounds nuw i8, ptr %0, i64 88
  %.pre.i = load ptr, ptr %.phi.trans.insert.i, align 8, !tbaa !61
  br label %_ZN8ImVectorI6ImVec2E9push_backERKS0_.exit

13:                                               ; preds = %7
  %14 = add nsw i32 %9, 1
  %.not.i.i = icmp eq i32 %9, 0
  br i1 %.not.i.i, label %_ZNK8ImVectorI6ImVec2E14_grow_capacityEi.exit.i, label %15

15:                                               ; preds = %13
  %16 = sdiv i32 %9, 2
  %17 = add nsw i32 %16, %9
  br label %_ZNK8ImVectorI6ImVec2E14_grow_capacityEi.exit.i

_ZNK8ImVectorI6ImVec2E14_grow_capacityEi.exit.i:  ; preds = %15, %13
  %18 = phi i32 [ %17, %15 ], [ 8, %13 ]
  %19 = tail call noundef i32 @llvm.smax.i32(i32 %18, i32 %14)
  %20 = sext i32 %19 to i64
  %21 = shl nsw i64 %20, 3
  %22 = tail call noundef ptr @_ZN5ImGui8MemAllocEm(i64 noundef %21)
  %23 = getelementptr inbounds nuw i8, ptr %0, i64 88
  %24 = load ptr, ptr %23, align 8, !tbaa !61
  %.not6.i.i = icmp eq ptr %24, null
  br i1 %.not6.i.i, label %30, label %25

25:                                               ; preds = %_ZNK8ImVectorI6ImVec2E14_grow_capacityEi.exit.i
  %26 = load i32, ptr %8, align 8, !tbaa !62
  %27 = sext i32 %26 to i64
  %28 = shl nsw i64 %27, 3
  tail call void @llvm.memcpy.p0.p0.i64(ptr align 4 %22, ptr nonnull align 4 %24, i64 %28, i1 false)
  %29 = load ptr, ptr %23, align 8, !tbaa !61
  tail call void @_ZN5ImGui7MemFreeEPv(ptr noundef %29)
  br label %30

30:                                               ; preds = %25, %_ZNK8ImVectorI6ImVec2E14_grow_capacityEi.exit.i
  store ptr %22, ptr %23, align 8, !tbaa !61
  store i32 %19, ptr %10, align 4, !tbaa !60
  %.pre3.i = load i32, ptr %8, align 8, !tbaa !62
  br label %_ZN8ImVectorI6ImVec2E9push_backERKS0_.exit

_ZN8ImVectorI6ImVec2E9push_backERKS0_.exit:       ; preds = %._ZN8ImVectorI6ImVec2E7reserveEi.exit_crit_edge.i, %30
  %31 = phi i32 [ %9, %._ZN8ImVectorI6ImVec2E7reserveEi.exit_crit_edge.i ], [ %.pre3.i, %30 ]
  %32 = phi ptr [ %.pre.i, %._ZN8ImVectorI6ImVec2E7reserveEi.exit_crit_edge.i ], [ %22, %30 ]
  %33 = sext i32 %31 to i64
  %34 = getelementptr inbounds %struct.ImVec2, ptr %32, i64 %33
  %35 = load i64, ptr %1, align 4
  store i64 %35, ptr %34, align 4
  %36 = load i32, ptr %8, align 8, !tbaa !62
  %37 = add nsw i32 %36, 1
  store i32 %37, ptr %8, align 8, !tbaa !62
  br label %41

38:                                               ; preds = %5
  %39 = shl nsw i32 %3, 2
  %40 = shl nsw i32 %4, 2
  tail call void @_ZN10ImDrawList16_PathArcToFastExERK6ImVec2fiii(ptr noundef nonnull align 8 dereferenceable(200) %0, ptr noundef nonnull align 4 dereferenceable(8) %1, float noundef %2, i32 noundef %39, i32 noundef %40, i32 noundef 0)
  br label %41

41:                                               ; preds = %38, %_ZN8ImVectorI6ImVec2E9push_backERKS0_.exit
  ret void
}